Certificate:
    Data:
        Version: 3 (0x2)
        Serial Number: 16920519709938047436 (0xead1c30705da59cc)
    Signature Algorithm: sha256WithRSAEncryption
        Issuer: C=US, ST=California, L=Stanford, O=Folding@home, OU=Folding@home, CN=Folding@home Certificate Authority/emailAddress=joseph@cauldrondevelopment.com
        Validity
            Not Before: Jun 24 16:16:11 2014 GMT
            Not After : May 31 16:16:11 2114 GMT
        Subject: C=US, ST=California, L=Stanford, O=Folding@home, OU=Folding@home, CN=Folding@home Certificate Authority/emailAddress=joseph@cauldrondevelopment.com
        Subject Public Key Info:
            Public Key Algorithm: rsaEncryption
                Public-Key: (4096 bit)
                Modulus:
                    00:ec:31:b3:59:c0:42:5b:55:d5:8a:9d:7e:70:e7:
                    6e:08:21:09:60:6b:a1:ab:38:b6:e8:ae:0e:8d:c9:
                    db:f0:6a:8b:39:da:7e:d4:9c:f5:5e:53:c3:0b:be:
                    1e:09:2a:23:15:a2:00:83:56:cb:55:83:93:00:20:
                    39:e5:ac:00:15:99:e6:cd:d9:32:6b:f8:ae:42:e8:
                    a5:12:c9:4c:8a:9c:57:a2:0a:12:49:be:9f:82:be:
                    30:f5:a2:43:44:8c:4c:4e:9f:85:4f:2c:4e:0c:b0:
                    85:26:f5:1d:8d:5e:6d:1e:bf:83:aa:d2:6b:d0:6a:
                    75:af:a1:21:52:1b:79:73:04:89:ce:12:41:7f:63:
                    6f:5f:0b:2c:47:17:41:be:74:ed:cd:12:02:f3:e0:
                    b1:56:eb:66:73:3b:25:d0:f1:29:6b:3b:b2:35:f8:
                    5a:a6:ae:5d:c4:fb:e8:ca:a3:0a:e4:53:2f:47:8c:
                    56:fe:9e:d1:a7:51:6e:fc:ac:81:15:03:1c:7b:20:
                    af:4d:c6:99:90:ea:b0:73:64:86:32:97:ff:03:d5:
                    75:2f:9f:ba:2a:0f:23:29:82:02:63:c8:d2:a7:5d:
                    3e:e6:33:4b:c4:6f:8d:46:0e:57:63:e7:0e:40:c2:
                    85:3a:af:24:6b:14:29:b7:da:6e:68:09:ea:eb:ce:
                    68:73:5d:c2:c0:8a:2f:0c:8a:71:51:5c:b6:70:31:
                    e7:8d:75:2d:b4:25:d5:e9:9e:bf:f6:89:17:85:35:
                    3c:fa:c7:a0:80:a8:ae:ab:24:15:cb:e8:f2:8b:01:
                    42:46:3e:39:13:1d:11:2b:32:32:df:e4:ca:ed:a8:
                    1c:99:8b:a1:79:1c:a9:6b:ec:50:28:91:39:22:7f:
                    31:22:f0:d7:7a:21:b7:76:c3:d0:3e:7d:8a:58:11:
                    0f:67:f2:f5:0c:ad:de:d8:19:9d:e5:5d:12:44:c6:
                    c3:f4:b9:37:09:8a:0f:f3:0c:18:6e:e7:bc:44:4c:
                    8f:e9:ed:41:7c:b0:6a:57:f9:fb:02:85:f8:c3:d4:
                    94:09:d4:12:58:4e:0f:a1:1d:b4:a0:ad:62:9c:e9:
                    40:4d:a5:3e:d3:0c:5c:e5:58:4a:92:63:86:30:bf:
                    a0:1f:de:cd:03:7d:f7:db:d1:e8:93:19:70:d9:97:
                    41:e4:4a:db:b3:e8:68:7e:72:cb:2d:5c:9a:ac:1b:
                    11:46:65:e4:19:0a:b2:36:e8:e7:96:38:8a:ed:c1:
                    5c:42:e3:d5:79:2e:1e:78:8f:2d:6e:7b:e8:2a:7e:
                    93:c6:fa:3e:be:94:f2:4a:ac:6e:ee:0c:f4:34:93:
                    c2:a6:d8:98:0e:a5:7d:2c:e3:9a:2e:2b:9a:0a:93:
                    5b:46:5d
                Exponent: 65537 (0x10001)
        X509v3 extensions:
            X509v3 Subject Key Identifier: 
                5B:8A:67:2B:3B:A3:A1:B9:71:90:AD:F7:DB:69:B5:D4:21:8A:90:4B
            X509v3 Authority Key Identifier: 
                keyid:5B:8A:67:2B:3B:A3:A1:B9:71:90:AD:F7:DB:69:B5:D4:21:8A:90:4B

            X509v3 Basic Constraints: 
                CA:TRUE
    Signature Algorithm: sha256WithRSAEncryption
         0b:84:04:22:c9:d7:9f:7e:f0:f3:c0:48:eb:be:58:8c:a3:70:
         e4:68:7e:5b:6d:0b:40:d0:5a:aa:cf:86:b4:95:f1:4d:e7:24:
         21:9a:c7:58:c8:c5:08:a7:97:82:2c:4b:d9:86:2b:e4:72:c8:
         b6:72:2b:b0:06:1a:a5:19:38:56:fd:cb:ac:4c:4d:9e:f3:46:
         5e:85:43:97:40:24:95:92:53:be:5e:37:0b:91:56:96:51:e8:
         e4:39:49:61:ec:3a:c4:73:9f:d4:4f:4e:04:4c:58:0f:9b:6f:
         f6:ec:f1:59:a2:03:98:c0:99:55:3b:fd:17:c5:35:19:b9:8a:
         2d:4d:70:a5:59:90:67:de:83:c8:98:58:f2:6c:fd:99:c4:4c:
         37:0e:37:03:6b:f5:8c:a1:03:ae:e5:ce:35:cc:13:36:84:4a:
         58:69:89:c5:f2:12:6d:2d:4d:a0:ff:42:77:7e:d7:92:8c:b8:
         61:f4:56:e4:98:30:e8:b9:48:38:12:a5:4d:4f:2a:98:50:34:
         a3:cb:8d:7a:77:a6:d9:6b:0e:55:9a:05:a4:d5:66:da:66:b2:
         0b:18:8b:65:7f:a6:7f:89:2b:46:6f:6f:5d:53:9c:76:5f:57:
         e9:8b:cd:c4:99:e6:4c:73:95:36:6f:db:c3:ea:19:ec:38:bb:
         b2:9c:94:7c:c4:77:64:e8:05:85:1f:20:c1:0b:a8:96:84:d5:
         a0:a5:df:e8:32:81:35:e6:4b:45:55:29:a5:f8:bf:dd:d6:e5:
         e7:d0:e9:a0:c8:a8:1d:18:49:3e:ce:a2:8d:06:d0:03:84:5c:
         20:66:1e:b3:ad:d5:fd:a9:b9:72:53:d9:1e:8a:ba:53:88:db:
         e1:3f:4f:34:73:69:90:13:70:34:34:e7:36:99:a7:ab:da:2c:
         ab:b0:d1:ea:55:fc:b6:fd:86:63:c0:04:54:56:6e:ae:81:d5:
         59:3f:2b:f5:1f:9a:d9:89:78:ee:d8:1b:9c:32:f8:d6:aa:f4:
         81:1c:ad:0c:23:a8:98:5f:2c:c2:0e:5c:67:a2:2d:e7:3c:a2:
         80:4f:4d:ef:64:8a:8f:4b:94:e5:69:5a:8f:fb:73:a8:cb:42:
         99:ae:a4:57:ce:6e:65:24:c4:82:0d:87:be:dd:52:e7:6e:0f:
         8e:ea:91:62:ba:45:d5:b4:1c:64:b5:ad:e0:be:dd:3d:b0:d1:
         5d:22:6a:85:b3:b3:4a:2c:2c:1f:eb:e3:b9:93:0d:ce:f9:29:
         84:b2:d8:ef:34:96:fd:4c:95:4b:f9:1f:c0:88:66:79:6c:2c:
         83:08:b2:03:e1:03:6e:2c:6f:34:1d:5d:7d:9b:2e:5f:06:60:
         05:27:8b:7c:c3:d0:d6:6d
-----BEGIN CERTIFICATE-----
MIIGVTCCBD2gAwIBAgIJAOrRwwcF2lnMMA0GCSqGSIb3DQEBCwUAMIG/MQswCQYD
VQQGEwJVUzETMBEGA1UECAwKQ2FsaWZvcm5pYTERMA8GA1UEBwwIU3RhbmZvcmQx
FTATBgNVBAoMDEZvbGRpbmdAaG9tZTEVMBMGA1UECwwMRm9sZGluZ0Bob21lMSsw
KQYDVQQDDCJGb2xkaW5nQGhvbWUgQ2VydGlmaWNhdGUgQXV0aG9yaXR5MS0wKwYJ
KoZIhvcNAQkBFh5qb3NlcGhAY2F1bGRyb25kZXZlbG9wbWVudC5jb20wIBcNMTQw
NjI0MTYxNjExWhgPMjExNDA1MzExNjE2MTFaMIG/MQswCQYDVQQGEwJVUzETMBEG
A1UECAwKQ2FsaWZvcm5pYTERMA8GA1UEBwwIU3RhbmZvcmQxFTATBgNVBAoMDEZv
bGRpbmdAaG9tZTEVMBMGA1UECwwMRm9sZGluZ0Bob21lMSswKQYDVQQDDCJGb2xk
aW5nQGhvbWUgQ2VydGlmaWNhdGUgQXV0aG9yaXR5MS0wKwYJKoZIhvcNAQkBFh5q
b3NlcGhAY2F1bGRyb25kZXZlbG9wbWVudC5jb20wggIiMA0GCSqGSIb3DQEBAQUA
A4ICDwAwggIKAoICAQDsMbNZwEJbVdWKnX5w524IIQlga6GrOLborg6Nydvwaos5
2n7UnPVeU8MLvh4JKiMVogCDVstVg5MAIDnlrAAVmebN2TJr+K5C6KUSyUyKnFei
ChJJvp+CvjD1okNEjExOn4VPLE4MsIUm9R2NXm0ev4Oq0mvQanWvoSFSG3lzBInO
EkF/Y29fCyxHF0G+dO3NEgLz4LFW62ZzOyXQ8SlrO7I1+Fqmrl3E++jKowrkUy9H
jFb+ntGnUW78rIEVAxx7IK9NxpmQ6rBzZIYyl/8D1XUvn7oqDyMpggJjyNKnXT7m
M0vEb41GDldj5w5AwoU6ryRrFCm32m5oCerrzmhzXcLAii8MinFRXLZwMeeNdS20
JdXpnr/2iReFNTz6x6CAqK6rJBXL6PKLAUJGPjkTHRErMjLf5MrtqByZi6F5HKlr
7FAokTkifzEi8Nd6Ibd2w9A+fYpYEQ9n8vUMrd7YGZ3lXRJExsP0uTcJig/zDBhu
57xETI/p7UF8sGpX+fsChfjD1JQJ1BJYTg+hHbSgrWKc6UBNpT7TDFzlWEqSY4Yw
v6Af3s0Dfffb0eiTGXDZl0HkStuz6Gh+csstXJqsGxFGZeQZCrI26OeWOIrtwVxC
49V5Lh54jy1ue+gqfpPG+j6+lPJKrG7uDPQ0k8Km2JgOpX0s45ouK5oKk1tGXQID
AQABo1AwTjAdBgNVHQ4EFgQUW4pnKzujoblxkK3322m11CGKkEswHwYDVR0jBBgw
FoAUW4pnKzujoblxkK3322m11CGKkEswDAYDVR0TBAUwAwEB/zANBgkqhkiG9w0B
AQsFAAOCAgEAC4QEIsnXn37w88BI675YjKNw5Gh+W20LQNBaqs+GtJXxTeckIZrH
WMjFCKeXgixL2YYr5HLItnIrsAYapRk4Vv3LrExNnvNGXoVDl0AklZJTvl43C5FW
llHo5DlJYew6xHOf1E9OBExYD5tv9uzxWaIDmMCZVTv9F8U1GbmKLU1wpVmQZ96D
yJhY8mz9mcRMNw43A2v1jKEDruXONcwTNoRKWGmJxfISbS1NoP9Cd37Xkoy4YfRW
5Jgw6LlIOBKlTU8qmFA0o8uNenem2WsOVZoFpNVm2mayCxiLZX+mf4krRm9vXVOc
dl9X6YvNxJnmTHOVNm/bw+oZ7Di7spyUfMR3ZOgFhR8gwQuoloTVoKXf6DKBNeZL
RVUppfi/3dbl59DpoMioHRhJPs6ijQbQA4RcIGYes63V/am5clPZHoq6U4jb4T9P
NHNpkBNwNDTnNpmnq9osq7DR6lX8tv2GY8AEVFZuroHVWT8r9R+a2Yl47tgbnDL4
1qr0gRytDCOomF8swg5cZ6It5zyigE9N72SKj0uU5Wlaj/tzqMtCma6kV85uZSTE
gg2Hvt1S524PjuqRYrpF1bQcZLWt4L7dPbDRXSJqhbOzSiwsH+vjuZMNzvkphLLY
7zSW/UyVS/kfwIhmeWwsgwiyA+EDbixvNB1dfZsuXwZgBSeLfMPQ1m0=
-----END CERTIFICATE-----
